target datalayout = "e-m:e-p270:32:32-p271:32:32-p272:64:64-i64:64-i128:128-f80:128-n8:16:32:64-S128"
target triple = "x86_64-pc-linux-gnu"

%struct.IpvideoContext = type { ptr, %struct.HpelDSPContext, ptr, ptr, ptr, ptr, ptr, i32, ptr, i32, i32, %struct.GetByteContext, %struct.GetByteContext, ptr, i32, i32, i32, [256 x i32] }
%struct.HpelDSPContext = type { [4 x [4 x ptr]], [4 x [4 x ptr]], [4 x [4 x ptr]], [4 x ptr] }
%struct.GetByteContext = type { ptr, ptr, ptr }

; Function Attrs: alwaysinline nounwind uwtable
define internal i32 @bytestream_get_byte(ptr noundef %0) #4 {
  %2 = alloca ptr, align 8
  store ptr %0, ptr %2, align 8, !tbaa !94
  %3 = load ptr, ptr %2, align 8, !tbaa !94
  %4 = load ptr, ptr %3, align 8, !tbaa !59
  %5 = getelementptr inbounds i8, ptr %4, i64 1
  store ptr %5, ptr %3, align 8, !tbaa !59
  %6 = load ptr, ptr %2, align 8, !tbaa !94
  %7 = load ptr, ptr %6, align 8, !tbaa !59
  %8 = getelementptr inbounds i8, ptr %7, i64 -1
  %9 = getelementptr inbounds i8, ptr %8, i64 0
  %10 = load i8, ptr %9, align 1, !tbaa !62
  %11 = zext i8 %10 to i32
  ret i32 %11
}

; Function Attrs: alwaysinline nounwind uwtable
define internal i32 @bytestream2_get_byteu(ptr noundef %0) #4 {
  %2 = alloca ptr, align 8
  store ptr %0, ptr %2, align 8, !tbaa !67
  %3 = load ptr, ptr %2, align 8, !tbaa !67
  %4 = getelementptr inbounds nuw %struct.GetByteContext, ptr %3, i32 0, i32 0
  %5 = call i32 @bytestream_get_byte(ptr noundef %4)
  ret i32 %5
}

; Function Attrs: alwaysinline nounwind uwtable
define internal i32 @bytestream2_get_byte(ptr noundef %0) #4 {
  %2 = alloca i32, align 4
  %3 = alloca ptr, align 8
  store ptr %0, ptr %3, align 8, !tbaa !67
  %4 = load ptr, ptr %3, align 8, !tbaa !67
  %5 = getelementptr inbounds nuw %struct.GetByteContext, ptr %4, i32 0, i32 1
  %6 = load ptr, ptr %5, align 8, !tbaa !71
  %7 = load ptr, ptr %3, align 8, !tbaa !67
  %8 = getelementptr inbounds nuw %struct.GetByteContext, ptr %7, i32 0, i32 0
  %9 = load ptr, ptr %8, align 8, !tbaa !69
  %10 = ptrtoint ptr %6 to i64
  %11 = ptrtoint ptr %9 to i64
  %12 = sub i64 %10, %11
  %13 = icmp slt i64 %12, 1
  br i1 %13, label %14, label %20

14:                                               ; preds = %1
  %15 = load ptr, ptr %3, align 8, !tbaa !67
  %16 = getelementptr inbounds nuw %struct.GetByteContext, ptr %15, i32 0, i32 1
  %17 = load ptr, ptr %16, align 8, !tbaa !71
  %18 = load ptr, ptr %3, align 8, !tbaa !67
  %19 = getelementptr inbounds nuw %struct.GetByteContext, ptr %18, i32 0, i32 0
  store ptr %17, ptr %19, align 8, !tbaa !69
  store i32 0, ptr %2, align 4
  br label %23

20:                                               ; preds = %1
  %21 = load ptr, ptr %3, align 8, !tbaa !67
  %22 = call i32 @bytestream2_get_byteu(ptr noundef %21)
  store i32 %22, ptr %2, align 4
  br label %23

23:                                               ; preds = %20, %14
  %24 = load i32, ptr %2, align 4
  ret i32 %24
}

; Function Attrs: nounwind uwtable
define internal i32 @ipvideo_decode_block_opcode_0x4(ptr noundef %0, ptr noundef %1) #1 {
  %3 = alloca ptr, align 8
  %4 = alloca ptr, align 8
  %5 = alloca i32, align 4
  %6 = alloca i32, align 4
  %7 = alloca i8, align 1
  %8 = alloca i8, align 1
  %9 = alloca i8, align 1
  store ptr %0, ptr %3, align 8, !tbaa !29
  store ptr %1, ptr %4, align 8, !tbaa !53
  call void @llvm.lifetime.start.p0(i64 4, ptr %5) #11
  call void @llvm.lifetime.start.p0(i64 4, ptr %6) #11
  call void @llvm.lifetime.start.p0(i64 1, ptr %7) #11
  call void @llvm.lifetime.start.p0(i64 1, ptr %8) #11
  call void @llvm.lifetime.start.p0(i64 1, ptr %9) #11
  %10 = load ptr, ptr %3, align 8, !tbaa !29
  %11 = getelementptr inbounds nuw %struct.IpvideoContext, ptr %10, i32 0, i32 10
  %12 = load i32, ptr %11, align 4, !tbaa !37
  %13 = icmp ne i32 %12, 0
  br i1 %13, label %19, label %14

14:                                               ; preds = %2
  %15 = load ptr, ptr %3, align 8, !tbaa !29
  %16 = getelementptr inbounds nuw %struct.IpvideoContext, ptr %15, i32 0, i32 11
  %17 = call i32 @bytestream2_get_byte(ptr noundef %16)
  %18 = trunc i32 %17 to i8
  store i8 %18, ptr %7, align 1, !tbaa !62
  br label %24

19:                                               ; preds = %2
  %20 = load ptr, ptr %3, align 8, !tbaa !29
  %21 = getelementptr inbounds nuw %struct.IpvideoContext, ptr %20, i32 0, i32 12
  %22 = call i32 @bytestream2_get_byte(ptr noundef %21)
  %23 = trunc i32 %22 to i8
  store i8 %23, ptr %7, align 1, !tbaa !62
  br label %24

24:                                               ; preds = %19, %14
  %25 = load i8, ptr %7, align 1, !tbaa !62
  %26 = zext i8 %25 to i32
  %27 = and i32 %26, 15
  %28 = trunc i32 %27 to i8
  store i8 %28, ptr %8, align 1, !tbaa !62
  %29 = load i8, ptr %7, align 1, !tbaa !62
  %30 = zext i8 %29 to i32
  %31 = ashr i32 %30, 4
  %32 = and i32 %31, 15
  %33 = trunc i32 %32 to i8
  store i8 %33, ptr %9, align 1, !tbaa !62
  %34 = load i8, ptr %8, align 1, !tbaa !62
  %35 = zext i8 %34 to i32
  %36 = add nsw i32 -8, %35
  store i32 %36, ptr %5, align 4, !tbaa !61
  %37 = load i8, ptr %9, align 1, !tbaa !62
  %38 = zext i8 %37 to i32
  %39 = add nsw i32 -8, %38
  store i32 %39, ptr %6, align 4, !tbaa !61
  br label %40

40:                                               ; preds = %24
  br label %41

41:                                               ; preds = %40
  br label %42

42:                                               ; preds = %41
  %43 = load ptr, ptr %3, align 8, !tbaa !29
  %44 = load ptr, ptr %3, align 8, !tbaa !29
  %45 = getelementptr inbounds nuw %struct.IpvideoContext, ptr %44, i32 0, i32 3
  %46 = load ptr, ptr %45, align 8, !tbaa !40
  %47 = load ptr, ptr %4, align 8, !tbaa !53
  %48 = load i32, ptr %5, align 4, !tbaa !61
  %49 = load i32, ptr %6, align 4, !tbaa !61
  %50 = call i32 @copy_from(ptr noundef %43, ptr noundef %46, ptr noundef %47, i32 noundef %48, i32 noundef %49)
  call void @llvm.lifetime.end.p0(i64 1, ptr %9) #11
  call void @llvm.lifetime.end.p0(i64 1, ptr %8) #11
  call void @llvm.lifetime.end.p0(i64 1, ptr %7) #11
  call void @llvm.lifetime.end.p0(i64 4, ptr %6) #11
  call void @llvm.lifetime.end.p0(i64 4, ptr %5) #11
  ret i32 %50
}