; Function Attrs: nounwind uwtable
define internal range(i32 -1094995529, 1) i32 @ipvideo_decode_block_opcode_0x4(ptr noundef captures(none) %0, ptr noundef readonly captures(none) %1) #1 {
  %3 = getelementptr inbounds nuw i8, ptr %0, i64 484
  %4 = load i32, ptr %3, align 4, !tbaa !34
  %.not = icmp eq i32 %4, 0
  br i1 %.not, label %5, label %18

5:                                                ; preds = %2
  %6 = getelementptr inbounds nuw i8, ptr %0, i64 488
  %7 = getelementptr inbounds nuw i8, ptr %0, i64 496
  %8 = load ptr, ptr %7, align 8, !tbaa !60
  %9 = load ptr, ptr %6, align 8, !tbaa !58
  %10 = ptrtoint ptr %8 to i64
  %11 = ptrtoint ptr %9 to i64
  %12 = sub i64 %10, %11
  %13 = icmp slt i64 %12, 1
  br i1 %13, label %14, label %15

14:                                               ; preds = %5
  store ptr %8, ptr %6, align 8, !tbaa !58
  br label %bytestream2_get_byte.exit

15:                                               ; preds = %5
  %16 = getelementptr inbounds nuw i8, ptr %9, i64 1
  store ptr %16, ptr %6, align 8, !tbaa !53
  %17 = load i8, ptr %9, align 1, !tbaa !54
  br label %bytestream2_get_byte.exit

18:                                               ; preds = %2
  %19 = getelementptr inbounds nuw i8, ptr %0, i64 512
  %20 = getelementptr inbounds nuw i8, ptr %0, i64 520
  %21 = load ptr, ptr %20, align 8, !tbaa !60
  %22 = load ptr, ptr %19, align 8, !tbaa !58
  %23 = ptrtoint ptr %21 to i64
  %24 = ptrtoint ptr %22 to i64
  %25 = sub i64 %23, %24
  %26 = icmp slt i64 %25, 1
  br i1 %26, label %27, label %28

27:                                               ; preds = %18
  store ptr %21, ptr %19, align 8, !tbaa !58
  br label %bytestream2_get_byte.exit

28:                                               ; preds = %18
  %29 = getelementptr inbounds nuw i8, ptr %22, i64 1
  store ptr %29, ptr %19, align 8, !tbaa !53
  %30 = load i8, ptr %22, align 1, !tbaa !54
  br label %bytestream2_get_byte.exit

bytestream2_get_byte.exit:                        ; preds = %28, %27, %15, %14
  %.0.in.shrunk = phi i8 [ 0, %14 ], [ %17, %15 ], [ 0, %27 ], [ %30, %28 ]
  %.0.in = zext i8 %.0.in.shrunk to i32
  %31 = and i32 %.0.in, 15
  %32 = lshr i32 %.0.in, 4
  %33 = add nsw i32 %31, -8
  %34 = add nsw i32 %32, -8
  %35 = getelementptr inbounds nuw i8, ptr %0, i64 432
  %36 = load ptr, ptr %35, align 8, !tbaa !37
  %37 = tail call fastcc i32 @copy_from(ptr noundef nonnull %0, ptr noundef %36, ptr noundef %1, i32 noundef %33, i32 noundef %34)
  ret i32 %37
}